; Function Attrs: mustprogress uwtable
define noundef zeroext i8 @_ZNK6icu_7519FilteredNormalizer217getCombiningClassEi(ptr nocapture noundef nonnull readonly align 8 dereferenceable(24) %this, i32 noundef %c) unnamed_addr #2 align 2 {
entry:
  %set = getelementptr inbounds i8, ptr %this, i64 16
  %0 = load ptr, ptr %set, align 8
  %call = tail call noundef signext i8 @_ZNK6icu_7510UnicodeSet8containsEi(ptr noundef nonnull align 8 dereferenceable(200) %0, i32 noundef %c)
  %tobool.not = icmp eq i8 %call, 0
  br i1 %tobool.not, label %cond.end, label %cond.true

cond.true:                                        ; preds = %entry
  %norm2 = getelementptr inbounds i8, ptr %this, i64 8
  %1 = load ptr, ptr %norm2, align 8
  %vtable = load ptr, ptr %1, align 8
  %vfn = getelementptr inbounds i8, ptr %vtable, i64 80
  %2 = load ptr, ptr %vfn, align 8
  %call2 = tail call noundef zeroext i8 %2(ptr noundef nonnull align 8 dereferenceable(8) %1, i32 noundef %c)
  br label %cond.end

cond.end:                                         ; preds = %entry, %cond.true
  %cond = phi i8 [ %call2, %cond.true ], [ 0, %entry ]
  ret i8 %cond
}